; Function Attrs: mustprogress uwtable
define noundef signext i8 @_ZN6icu_778Collator10unregisterEPKvR10UErrorCode(ptr noundef %0, ptr noundef nonnull align 4 dereferenceable(4) %1) local_unnamed_addr #5 align 2 personality ptr @__gxx_personality_v0 {
  %3 = load i32, ptr %1, align 4, !tbaa !6
  %4 = icmp sgt i32 %3, 0
  br i1 %4, label %24, label %5

5:                                                ; preds = %2
  %6 = load atomic i32, ptr @_ZL16gServiceInitOnce acquire, align 4
  %.not.i = icmp eq i32 %6, 0
  br i1 %.not.i, label %_ZN6icu_77L10hasServiceEv.exit.thread, label %7

7:                                                ; preds = %5
  %8 = load atomic i32, ptr @_ZL16gServiceInitOnce acquire, align 4
  %9 = icmp eq i32 %8, 2
  br i1 %9, label %_ZN6icu_77L10hasServiceEv.exit, label %10

10:                                               ; preds = %7
  %11 = tail call noundef signext i8 @_ZN6icu_7720umtx_initImplPreInitERNS_9UInitOnceE(ptr noundef nonnull align 4 dereferenceable(8) @_ZL16gServiceInitOnce)
  %.not.i.i.i = icmp eq i8 %11, 0
  br i1 %.not.i.i.i, label %_ZN6icu_77L10hasServiceEv.exit, label %12

12:                                               ; preds = %10
  %13 = tail call noundef ptr @_ZN6icu_777UMemorynwEm(i64 noundef 408) #16
  %14 = icmp eq ptr %13, null
  br i1 %14, label %_ZN6icu_77L11initServiceEv.exit.i.i, label %15

15:                                               ; preds = %12
  invoke void @_ZN6icu_7718ICUCollatorServiceC2Ev(ptr noundef nonnull align 8 dereferenceable(408) %13)
          to label %_ZN6icu_77L11initServiceEv.exit.i.i unwind label %16

16:                                               ; preds = %15
  %17 = landingpad { ptr, i32 }
          cleanup
  tail call void @_ZN6icu_777UMemorydlEPv(ptr noundef nonnull %13) #16
  resume { ptr, i32 } %17

_ZN6icu_77L11initServiceEv.exit.i.i:              ; preds = %15, %12
  store ptr %13, ptr @_ZL8gService, align 8, !tbaa !15
  tail call void @ucln_i18n_registerCleanup_77(i32 noundef 28, ptr noundef nonnull @_ZL16collator_cleanupv)
  tail call void @_ZN6icu_7721umtx_initImplPostInitERNS_9UInitOnceE(ptr noundef nonnull align 4 dereferenceable(8) @_ZL16gServiceInitOnce)
  br label %_ZN6icu_77L10hasServiceEv.exit

_ZN6icu_77L10hasServiceEv.exit:                   ; preds = %7, %10, %_ZN6icu_77L11initServiceEv.exit.i.i
  %18 = load ptr, ptr @_ZL8gService, align 8, !tbaa !15
  %.not = icmp eq ptr %18, null
  br i1 %.not, label %_ZN6icu_77L10hasServiceEv.exit.thread, label %19

19:                                               ; preds = %_ZN6icu_77L10hasServiceEv.exit
  %20 = load ptr, ptr %18, align 8, !tbaa !3
  %21 = getelementptr inbounds nuw i8, ptr %20, i64 80
  %22 = load ptr, ptr %21, align 8
  %23 = tail call noundef signext i8 %22(ptr noundef nonnull align 8 dereferenceable(120) %18, ptr noundef %0, ptr noundef nonnull align 4 dereferenceable(4) %1)
  br label %24

_ZN6icu_77L10hasServiceEv.exit.thread:            ; preds = %5, %_ZN6icu_77L10hasServiceEv.exit
  store i32 1, ptr %1, align 4, !tbaa !6
  br label %24

24:                                               ; preds = %2, %_ZN6icu_77L10hasServiceEv.exit.thread, %19
  %.0 = phi i8 [ %23, %19 ], [ 0, %_ZN6icu_77L10hasServiceEv.exit.thread ], [ 0, %2 ]
  ret i8 %.0
}